; Function Attrs: uwtable
define internal void @__cxx_global_var_init.1() #0 section ".text.startup" comdat($_ZN4cvc56parser9Smt2Lexer21s_printableAsciiCharsB5cxx11E) personality ptr @__gxx_personality_v0 {
entry:
  %ref.tmp = alloca %"class.std::allocator", align 1
  %0 = load atomic i8, ptr @_ZGVN4cvc56parser9Smt2Lexer21s_printableAsciiCharsB5cxx11E acquire, align 8
  %guard.uninitialized = icmp eq i8 %0, 0
  br i1 %guard.uninitialized, label %init.check, label %init.end

init.check:                                       ; preds = %entry
  %1 = tail call i32 @__cxa_guard_acquire(ptr nonnull @_ZGVN4cvc56parser9Smt2Lexer21s_printableAsciiCharsB5cxx11E) #8
  %tobool.not = icmp eq i32 %1, 0
  br i1 %tobool.not, label %init.end, label %init

init:                                             ; preds = %init.check
  call void @_ZNSaIcEC1Ev(ptr noundef nonnull align 1 dereferenceable(1) %ref.tmp) #8
  %call.i1 = invoke noundef ptr @_ZNSt7__cxx1112basic_stringIcSt11char_traitsIcESaIcEE13_M_local_dataEv(ptr noundef nonnull align 8 dereferenceable(32) @_ZN4cvc56parser9Smt2Lexer21s_printableAsciiCharsB5cxx11E)
          to label %call.i.noexc unwind label %lpad

call.i.noexc:                                     ; preds = %init
  invoke void @_ZNSt7__cxx1112basic_stringIcSt11char_traitsIcESaIcEE12_Alloc_hiderC1EPcRKS3_(ptr noundef nonnull align 8 dereferenceable(8) @_ZN4cvc56parser9Smt2Lexer21s_printableAsciiCharsB5cxx11E, ptr noundef %call.i1, ptr noundef nonnull align 1 dereferenceable(1) %ref.tmp)
          to label %.noexc unwind label %lpad

.noexc:                                           ; preds = %call.i.noexc
  invoke void @_ZNSt7__cxx1112basic_stringIcSt11char_traitsIcESaIcEE12_M_constructIPKcEEvT_S8_St20forward_iterator_tag(ptr noundef nonnull align 8 dereferenceable(32) @_ZN4cvc56parser9Smt2Lexer21s_printableAsciiCharsB5cxx11E, ptr noundef nonnull @.str.2, ptr noundef nonnull getelementptr inbounds ([99 x i8], ptr @.str.2, i64 0, i64 98))
          to label %invoke.cont unwind label %lpad.i

lpad.i:                                           ; preds = %.noexc
  %2 = landingpad { ptr, i32 }
          cleanup
  call void @_ZNSaIcED2Ev(ptr noundef nonnull align 1 dereferenceable(1) @_ZN4cvc56parser9Smt2Lexer21s_printableAsciiCharsB5cxx11E) #8
  br label %lpad.body

invoke.cont:                                      ; preds = %.noexc
  call void @_ZNSaIcED1Ev(ptr noundef nonnull align 1 dereferenceable(1) %ref.tmp) #8
  %3 = call i32 @__cxa_atexit(ptr nonnull @_ZNSt7__cxx1112basic_stringIcSt11char_traitsIcESaIcEED1Ev, ptr nonnull @_ZN4cvc56parser9Smt2Lexer21s_printableAsciiCharsB5cxx11E, ptr nonnull @__dso_handle) #8
  call void @__cxa_guard_release(ptr nonnull @_ZGVN4cvc56parser9Smt2Lexer21s_printableAsciiCharsB5cxx11E) #8
  br label %init.end

init.end:                                         ; preds = %invoke.cont, %init.check, %entry
  ret void

lpad:                                             ; preds = %call.i.noexc, %init
  %4 = landingpad { ptr, i32 }
          cleanup
  br label %lpad.body

lpad.body:                                        ; preds = %lpad.i, %lpad
  %eh.lpad-body = phi { ptr, i32 } [ %4, %lpad ], [ %2, %lpad.i ]
  call void @_ZNSaIcED1Ev(ptr noundef nonnull align 1 dereferenceable(1) %ref.tmp) #8
  call void @__cxa_guard_abort(ptr nonnull @_ZGVN4cvc56parser9Smt2Lexer21s_printableAsciiCharsB5cxx11E) #8
  resume { ptr, i32 } %eh.lpad-body
}